target datalayout = "e-m:e-p270:32:32-p271:32:32-p272:64:64-i64:64-i128:128-f80:128-n8:16:32:64-S128"
target triple = "x86_64-pc-linux-gnu"

%struct.RelMapFile = type { i32, i32, [64 x %struct.RelMapping], i32 }
%struct.RelMapping = type { i32, i32 }

@shared_map = internal global %struct.RelMapFile zeroinitializer, align 4
@local_map = internal global %struct.RelMapFile zeroinitializer, align 4
@.str.5 = private unnamed_addr constant [7 x i8] c"global\00", align 1
@DatabasePath = external global ptr, align 8

; Function Attrs: nounwind uwtable
define internal void @load_relmap_file(i1 noundef zeroext %0, i1 noundef zeroext %1) #0 {
  %3 = alloca i8, align 1
  %4 = alloca i8, align 1
  %5 = zext i1 %0 to i8
  store i8 %5, ptr %3, align 1
  %6 = zext i1 %1 to i8
  store i8 %6, ptr %4, align 1
  %7 = load i8, ptr %3, align 1, !range !4, !noundef !5
  %8 = trunc i8 %7 to i1
  br i1 %8, label %9, label %12

9:                                                ; preds = %2
  %10 = load i8, ptr %4, align 1, !range !4, !noundef !5
  %11 = trunc i8 %10 to i1
  call void @read_relmap_file(ptr noundef @shared_map, ptr noundef @.str.5, i1 noundef zeroext %11, i32 noundef 22)
  br label %16

12:                                               ; preds = %2
  %13 = load ptr, ptr @DatabasePath, align 8
  %14 = load i8, ptr %4, align 1, !range !4, !noundef !5
  %15 = trunc i8 %14 to i1
  call void @read_relmap_file(ptr noundef @local_map, ptr noundef %13, i1 noundef zeroext %15, i32 noundef 22)
  br label %16

16:                                               ; preds = %12, %9
  ret void
}

; Function Attrs: nounwind uwtable
define dso_local void @RelationMapInvalidate(i1 noundef zeroext %0) #0 {
  %2 = alloca i8, align 1
  %3 = zext i1 %0 to i8
  store i8 %3, ptr %2, align 1
  %4 = load i8, ptr %2, align 1, !range !4, !noundef !5
  %5 = trunc i8 %4 to i1
  br i1 %5, label %6, label %11

6:                                                ; preds = %1
  %7 = load i32, ptr @shared_map, align 4
  %8 = icmp eq i32 %7, 5842711
  br i1 %8, label %9, label %10

9:                                                ; preds = %6
  call void @load_relmap_file(i1 noundef zeroext true, i1 noundef zeroext false)
  br label %10

10:                                               ; preds = %9, %6
  br label %16

11:                                               ; preds = %1
  %12 = load i32, ptr @local_map, align 4
  %13 = icmp eq i32 %12, 5842711
  br i1 %13, label %14, label %15

14:                                               ; preds = %11
  call void @load_relmap_file(i1 noundef zeroext false, i1 noundef zeroext false)
  br label %15

15:                                               ; preds = %14, %11
  br label %16

16:                                               ; preds = %15, %10
  ret void
}