; Function Attrs: nounwind uwtable
define dso_local void @RelationMapInvalidate(i1 noundef zeroext %0) local_unnamed_addr #2 {
  br i1 %0, label %2, label %6

2:                                                ; preds = %1
  %3 = load i32, ptr @shared_map, align 4
  %4 = icmp eq i32 %3, 5842711
  br i1 %4, label %5, label %11

5:                                                ; preds = %2
  tail call fastcc void @read_relmap_file(ptr noundef nonnull @shared_map, ptr noundef nonnull @.str.5, i1 noundef zeroext false, i32 noundef 22)
  br label %11

6:                                                ; preds = %1
  %7 = load i32, ptr @local_map, align 4
  %8 = icmp eq i32 %7, 5842711
  br i1 %8, label %9, label %11

9:                                                ; preds = %6
  %10 = load ptr, ptr @DatabasePath, align 8
  tail call fastcc void @read_relmap_file(ptr noundef nonnull @local_map, ptr noundef %10, i1 noundef zeroext false, i32 noundef 22)
  br label %11

11:                                               ; preds = %6, %9, %2, %5
  ret void
}